target datalayout = "e-m:e-p270:32:32-p271:32:32-p272:64:64-i64:64-i128:128-f80:128-n8:16:32:64-S128"
target triple = "x86_64-unknown-linux-gnu"

%struct.CpuInstanceProperties = type { i8, i64, i8, i64, i8, i64, i8, i64, i8, i64, i8, i64, i8, i64, i8, i64 }
%struct.Object = type { ptr, ptr, ptr, i32, ptr }
%struct.CpuInfoFast = type { i64, ptr, i64, ptr, i32, %union.anon.6 }
%union.anon.6 = type { %struct.CpuInfoS390 }
%struct.CpuInfoS390 = type { i32, i8, i8, i8, i32 }
%struct.CpuInfoFastList = type { ptr, ptr }
%struct.MachineState = type { %struct.Object, ptr, ptr, ptr, i32, ptr, i8, i8, i8, i8, ptr, i8, i8, i8, ptr, ptr, ptr, ptr, ptr, i64, i64, i64, %struct.BootConfiguration, ptr, ptr, ptr, ptr, ptr, ptr, %struct.CpuTopology, ptr, ptr }
%struct.BootConfiguration = type { ptr, ptr, i8, i8, ptr, i8, i64, i8, i64, i8, i8 }
%struct.CpuTopology = type { i32, i32, i32, i32, i32, i32, i32, i32, i32 }
%struct.NumaState = type { i32, i8, i8, [128 x %struct.NodeInfo], [4 x [6 x ptr]], [128 x [4 x ptr]] }
%struct.NodeInfo = type { i64, ptr, i8, i8, i8, i16, [128 x i8] }
%struct.NumaNodeMem = type { i64, i64 }

@error_abort = external global ptr, align 8
@.str.1 = private unnamed_addr constant [8 x i8] c"machine\00", align 1
@.str.5 = private unnamed_addr constant [1 x i8] zeroinitializer, align 1
@.str.6 = private unnamed_addr constant [10 x i8] c"%d nodes\0A\00", align 1
@.str.7 = private unnamed_addr constant [14 x i8] c"node %d cpus:\00", align 1
@.str.8 = private unnamed_addr constant [5 x i8] c" %li\00", align 1
@.str.9 = private unnamed_addr constant [2 x i8] c"\0A\00", align 1
@.str.10 = private unnamed_addr constant [22 x i8] c"node %d size: %ld MB\0A\00", align 1
@.str.11 = private unnamed_addr constant [25 x i8] c"node %d plugged: %ld MB\0A\00", align 1
@.str.15 = private unnamed_addr constant [98 x i8] c"/home/dtcxzyw/WorkSpace/Projects/compilers/llvm-opt-benchmark/bench/qemu/qemu/include/hw/boards.h\00", align 1
@__func__.MACHINE = private unnamed_addr constant [8 x i8] c"MACHINE\00", align 1

; Function Attrs: nounwind sspstrong uwtable
define internal void @g_autoptr_cleanup_gstring_free(ptr noundef %string) #0 {
entry:
  %string.addr = alloca ptr, align 8
  store ptr %string, ptr %string.addr, align 8
  %0 = load ptr, ptr %string.addr, align 8
  %tobool = icmp ne ptr %0, null
  br i1 %tobool, label %if.then, label %if.end

if.then:                                          ; preds = %entry
  %1 = load ptr, ptr %string.addr, align 8
  %call = call ptr @g_string_free(ptr noundef %1, i32 noundef 1)
  br label %if.end

if.end:                                           ; preds = %if.then, %entry
  ret void
}

; Function Attrs: nounwind sspstrong uwtable
define internal void @glib_autoptr_clear_GString(ptr noundef %_ptr) #0 {
entry:
  %_ptr.addr = alloca ptr, align 8
  store ptr %_ptr, ptr %_ptr.addr, align 8
  %0 = load ptr, ptr %_ptr.addr, align 8
  %tobool = icmp ne ptr %0, null
  br i1 %tobool, label %if.then, label %if.end

if.then:                                          ; preds = %entry
  %1 = load ptr, ptr %_ptr.addr, align 8
  call void @g_autoptr_cleanup_gstring_free(ptr noundef %1)
  br label %if.end

if.end:                                           ; preds = %if.then, %entry
  ret void
}

; Function Attrs: nounwind sspstrong uwtable
define internal void @glib_autoptr_cleanup_GString(ptr noundef %_ptr) #0 {
entry:
  %_ptr.addr = alloca ptr, align 8
  store ptr %_ptr, ptr %_ptr.addr, align 8
  %0 = load ptr, ptr %_ptr.addr, align 8
  %1 = load ptr, ptr %0, align 8
  call void @glib_autoptr_clear_GString(ptr noundef %1)
  ret void
}

; Function Attrs: nounwind sspstrong uwtable
define internal ptr @MACHINE(ptr noundef %obj) #0 {
entry:
  %obj.addr = alloca ptr, align 8
  store ptr %obj, ptr %obj.addr, align 8
  %0 = load ptr, ptr %obj.addr, align 8
  %call = call ptr @object_dynamic_cast_assert(ptr noundef %0, ptr noundef @.str.1, ptr noundef @.str.15, i32 noundef 23, ptr noundef @__func__.MACHINE)
  ret ptr %call
}

; Function Attrs: nounwind sspstrong uwtable
define dso_local ptr @qmp_x_query_numa(ptr noundef %errp) #0 {
entry:
  %errp.addr = alloca ptr, align 8
  %buf = alloca ptr, align 8
  %i = alloca i32, align 4
  %nb_numa_nodes = alloca i32, align 4
  %node_mem = alloca ptr, align 8
  %cpu_list = alloca ptr, align 8
  %cpu = alloca ptr, align 8
  %ms = alloca ptr, align 8
  store ptr %errp, ptr %errp.addr, align 8
  %call = call ptr @g_string_new(ptr noundef @.str.5)
  store ptr %call, ptr %buf, align 8
  %call1 = call ptr @qdev_get_machine()
  %call2 = call ptr @MACHINE(ptr noundef %call1)
  store ptr %call2, ptr %ms, align 8
  %0 = load ptr, ptr %ms, align 8
  %numa_state = getelementptr inbounds %struct.MachineState, ptr %0, i32 0, i32 31
  %1 = load ptr, ptr %numa_state, align 8
  %tobool = icmp ne ptr %1, null
  br i1 %tobool, label %cond.true, label %cond.false

cond.true:                                        ; preds = %entry
  %2 = load ptr, ptr %ms, align 8
  %numa_state3 = getelementptr inbounds %struct.MachineState, ptr %2, i32 0, i32 31
  %3 = load ptr, ptr %numa_state3, align 8
  %num_nodes = getelementptr inbounds %struct.NumaState, ptr %3, i32 0, i32 0
  %4 = load i32, ptr %num_nodes, align 8
  br label %cond.end

cond.false:                                       ; preds = %entry
  br label %cond.end

cond.end:                                         ; preds = %cond.false, %cond.true
  %cond = phi i32 [ %4, %cond.true ], [ 0, %cond.false ]
  store i32 %cond, ptr %nb_numa_nodes, align 4
  %5 = load ptr, ptr %buf, align 8
  %6 = load i32, ptr %nb_numa_nodes, align 4
  call void (ptr, ptr, ...) @g_string_append_printf(ptr noundef %5, ptr noundef @.str.6, i32 noundef %6)
  %7 = load i32, ptr %nb_numa_nodes, align 4
  %tobool4 = icmp ne i32 %7, 0
  br i1 %tobool4, label %if.end, label %if.then

if.then:                                          ; preds = %cond.end
  br label %done

if.end:                                           ; preds = %cond.end
  %call5 = call ptr @qmp_query_cpus_fast(ptr noundef @error_abort)
  store ptr %call5, ptr %cpu_list, align 8
  %8 = load i32, ptr %nb_numa_nodes, align 4
  %conv = sext i32 %8 to i64
  %call6 = call noalias ptr @g_malloc0_n(i64 noundef %conv, i64 noundef 16) #10
  store ptr %call6, ptr %node_mem, align 8
  %9 = load ptr, ptr %node_mem, align 8
  %10 = load ptr, ptr %ms, align 8
  call void @query_numa_node_mem(ptr noundef %9, ptr noundef %10)
  store i32 0, ptr %i, align 4
  br label %for.cond

for.cond:                                         ; preds = %for.inc29, %if.end
  %11 = load i32, ptr %i, align 4
  %12 = load i32, ptr %nb_numa_nodes, align 4
  %cmp = icmp slt i32 %11, %12
  br i1 %cmp, label %for.body, label %for.end30

for.body:                                         ; preds = %for.cond
  %13 = load ptr, ptr %buf, align 8
  %14 = load i32, ptr %i, align 4
  call void (ptr, ptr, ...) @g_string_append_printf(ptr noundef %13, ptr noundef @.str.7, i32 noundef %14)
  %15 = load ptr, ptr %cpu_list, align 8
  store ptr %15, ptr %cpu, align 8
  br label %for.cond8

for.cond8:                                        ; preds = %for.inc, %for.body
  %16 = load ptr, ptr %cpu, align 8
  %tobool9 = icmp ne ptr %16, null
  br i1 %tobool9, label %for.body10, label %for.end

for.body10:                                       ; preds = %for.cond8
  %17 = load ptr, ptr %cpu, align 8
  %value = getelementptr inbounds %struct.CpuInfoFastList, ptr %17, i32 0, i32 1
  %18 = load ptr, ptr %value, align 8
  %props = getelementptr inbounds %struct.CpuInfoFast, ptr %18, i32 0, i32 3
  %19 = load ptr, ptr %props, align 8
  %tobool11 = icmp ne ptr %19, null
  br i1 %tobool11, label %land.lhs.true, label %if.end24

land.lhs.true:                                    ; preds = %for.body10
  %20 = load ptr, ptr %cpu, align 8
  %value12 = getelementptr inbounds %struct.CpuInfoFastList, ptr %20, i32 0, i32 1
  %21 = load ptr, ptr %value12, align 8
  %props13 = getelementptr inbounds %struct.CpuInfoFast, ptr %21, i32 0, i32 3
  %22 = load ptr, ptr %props13, align 8
  %has_node_id = getelementptr inbounds %struct.CpuInstanceProperties, ptr %22, i32 0, i32 0
  %23 = load i8, ptr %has_node_id, align 8
  %tobool14 = trunc i8 %23 to i1
  br i1 %tobool14, label %land.lhs.true16, label %if.end24

land.lhs.true16:                                  ; preds = %land.lhs.true
  %24 = load ptr, ptr %cpu, align 8
  %value17 = getelementptr inbounds %struct.CpuInfoFastList, ptr %24, i32 0, i32 1
  %25 = load ptr, ptr %value17, align 8
  %props18 = getelementptr inbounds %struct.CpuInfoFast, ptr %25, i32 0, i32 3
  %26 = load ptr, ptr %props18, align 8
  %node_id = getelementptr inbounds %struct.CpuInstanceProperties, ptr %26, i32 0, i32 1
  %27 = load i64, ptr %node_id, align 8
  %28 = load i32, ptr %i, align 4
  %conv19 = sext i32 %28 to i64
  %cmp20 = icmp eq i64 %27, %conv19
  br i1 %cmp20, label %if.then22, label %if.end24

if.then22:                                        ; preds = %land.lhs.true16
  %29 = load ptr, ptr %buf, align 8
  %30 = load ptr, ptr %cpu, align 8
  %value23 = getelementptr inbounds %struct.CpuInfoFastList, ptr %30, i32 0, i32 1
  %31 = load ptr, ptr %value23, align 8
  %cpu_index = getelementptr inbounds %struct.CpuInfoFast, ptr %31, i32 0, i32 0
  %32 = load i64, ptr %cpu_index, align 8
  call void (ptr, ptr, ...) @g_string_append_printf(ptr noundef %29, ptr noundef @.str.8, i64 noundef %32)
  br label %if.end24

if.end24:                                         ; preds = %if.then22, %land.lhs.true16, %land.lhs.true, %for.body10
  br label %for.inc

for.inc:                                          ; preds = %if.end24
  %33 = load ptr, ptr %cpu, align 8
  %next = getelementptr inbounds %struct.CpuInfoFastList, ptr %33, i32 0, i32 0
  %34 = load ptr, ptr %next, align 8
  store ptr %34, ptr %cpu, align 8
  br label %for.cond8, !llvm.loop !10

for.end:                                          ; preds = %for.cond8
  %35 = load ptr, ptr %buf, align 8
  call void (ptr, ptr, ...) @g_string_append_printf(ptr noundef %35, ptr noundef @.str.9)
  %36 = load ptr, ptr %buf, align 8
  %37 = load i32, ptr %i, align 4
  %38 = load ptr, ptr %node_mem, align 8
  %39 = load i32, ptr %i, align 4
  %idxprom = sext i32 %39 to i64
  %arrayidx = getelementptr %struct.NumaNodeMem, ptr %38, i64 %idxprom
  %node_mem25 = getelementptr inbounds %struct.NumaNodeMem, ptr %arrayidx, i32 0, i32 0
  %40 = load i64, ptr %node_mem25, align 8
  %shr = lshr i64 %40, 20
  call void (ptr, ptr, ...) @g_string_append_printf(ptr noundef %36, ptr noundef @.str.10, i32 noundef %37, i64 noundef %shr)
  %41 = load ptr, ptr %buf, align 8
  %42 = load i32, ptr %i, align 4
  %43 = load ptr, ptr %node_mem, align 8
  %44 = load i32, ptr %i, align 4
  %idxprom26 = sext i32 %44 to i64
  %arrayidx27 = getelementptr %struct.NumaNodeMem, ptr %43, i64 %idxprom26
  %node_plugged_mem = getelementptr inbounds %struct.NumaNodeMem, ptr %arrayidx27, i32 0, i32 1
  %45 = load i64, ptr %node_plugged_mem, align 8
  %shr28 = lshr i64 %45, 20
  call void (ptr, ptr, ...) @g_string_append_printf(ptr noundef %41, ptr noundef @.str.11, i32 noundef %42, i64 noundef %shr28)
  br label %for.inc29

for.inc29:                                        ; preds = %for.end
  %46 = load i32, ptr %i, align 4
  %inc = add i32 %46, 1
  store i32 %inc, ptr %i, align 4
  br label %for.cond, !llvm.loop !11

for.end30:                                        ; preds = %for.cond
  %47 = load ptr, ptr %cpu_list, align 8
  call void @qapi_free_CpuInfoFastList(ptr noundef %47)
  %48 = load ptr, ptr %node_mem, align 8
  call void @g_free(ptr noundef %48)
  br label %done

done:                                             ; preds = %for.end30, %if.then
  %49 = load ptr, ptr %buf, align 8
  %call31 = call ptr @human_readable_text_from_str(ptr noundef %49)
  call void @glib_autoptr_cleanup_GString(ptr noundef %buf)
  ret ptr %call31
}