; Function Attrs: nounwind sspstrong uwtable
define dso_local ptr @qmp_x_query_numa(ptr noundef readnone captures(none) %errp) local_unnamed_addr #0 {
entry:
  %call = tail call ptr @g_string_new(ptr noundef nonnull @.str.5) #7
  %call1 = tail call ptr @qdev_get_machine() #7
  %call.i = tail call ptr @object_dynamic_cast_assert(ptr noundef %call1, ptr noundef nonnull @.str.1, ptr noundef nonnull @.str.15, i32 noundef 23, ptr noundef nonnull @__func__.MACHINE) #7
  %numa_state = getelementptr inbounds nuw i8, ptr %call.i, i64 336
  %0 = load ptr, ptr %numa_state, align 8
  %tobool.not = icmp eq ptr %0, null
  br i1 %tobool.not, label %cond.end.thread, label %cond.end

cond.end.thread:                                  ; preds = %entry
  tail call void (ptr, ptr, ...) @g_string_append_printf(ptr noundef %call, ptr noundef nonnull @.str.6, i32 noundef 0) #7
  br label %done

cond.end:                                         ; preds = %entry
  %1 = load i32, ptr %0, align 8
  tail call void (ptr, ptr, ...) @g_string_append_printf(ptr noundef %call, ptr noundef nonnull @.str.6, i32 noundef %1) #7
  %tobool4.not = icmp eq i32 %1, 0
  br i1 %tobool4.not, label %done, label %if.end

if.end:                                           ; preds = %cond.end
  %call5 = tail call ptr @qmp_query_cpus_fast(ptr nonnull poison)
  %call5.fr = freeze ptr %call5
  %conv = sext i32 %1 to i64
  %call6 = tail call noalias ptr @g_malloc0_n(i64 noundef %conv, i64 noundef 16) #10
  tail call void @query_numa_node_mem(ptr noundef %call6, ptr noundef nonnull %call.i) #7
  %cmp33 = icmp sgt i32 %1, 0
  br i1 %cmp33, label %for.body.lr.ph, label %for.end30

for.body.lr.ph:                                   ; preds = %if.end
  %tobool9.not31 = icmp eq ptr %call5.fr, null
  %wide.trip.count40 = zext nneg i32 %1 to i64
  br i1 %tobool9.not31, label %for.body.us, label %for.body

for.body.us:                                      ; preds = %for.body.lr.ph, %for.body.us
  %indvars.iv37 = phi i64 [ %indvars.iv.next38, %for.body.us ], [ 0, %for.body.lr.ph ]
  %2 = trunc nuw nsw i64 %indvars.iv37 to i32
  tail call void (ptr, ptr, ...) @g_string_append_printf(ptr noundef %call, ptr noundef nonnull @.str.7, i32 noundef %2) #7
  tail call void (ptr, ptr, ...) @g_string_append_printf(ptr noundef %call, ptr noundef nonnull @.str.9) #7
  %arrayidx.us = getelementptr %struct.NumaNodeMem, ptr %call6, i64 %indvars.iv37
  %3 = load i64, ptr %arrayidx.us, align 8
  %shr.us = lshr i64 %3, 20
  tail call void (ptr, ptr, ...) @g_string_append_printf(ptr noundef %call, ptr noundef nonnull @.str.10, i32 noundef %2, i64 noundef %shr.us) #7
  %node_plugged_mem.us = getelementptr inbounds nuw i8, ptr %arrayidx.us, i64 8
  %4 = load i64, ptr %node_plugged_mem.us, align 8
  %shr28.us = lshr i64 %4, 20
  tail call void (ptr, ptr, ...) @g_string_append_printf(ptr noundef %call, ptr noundef nonnull @.str.11, i32 noundef %2, i64 noundef %shr28.us) #7
  %indvars.iv.next38 = add nuw nsw i64 %indvars.iv37, 1
  %exitcond41.not = icmp eq i64 %indvars.iv.next38, %wide.trip.count40
  br i1 %exitcond41.not, label %for.end30, label %for.body.us, !llvm.loop !10

for.body:                                         ; preds = %for.body.lr.ph, %for.cond8.for.end_crit_edge
  %indvars.iv = phi i64 [ %indvars.iv.next, %for.cond8.for.end_crit_edge ], [ 0, %for.body.lr.ph ]
  %5 = trunc nuw nsw i64 %indvars.iv to i32
  tail call void (ptr, ptr, ...) @g_string_append_printf(ptr noundef %call, ptr noundef nonnull @.str.7, i32 noundef %5) #7
  br label %for.body10

for.body10:                                       ; preds = %for.body, %for.inc
  %cpu.032 = phi ptr [ %call5.fr, %for.body ], [ %11, %for.inc ]
  %value = getelementptr inbounds nuw i8, ptr %cpu.032, i64 8
  %6 = load ptr, ptr %value, align 8
  %props = getelementptr inbounds nuw i8, ptr %6, i64 24
  %7 = load ptr, ptr %props, align 8
  %tobool11.not = icmp eq ptr %7, null
  br i1 %tobool11.not, label %for.inc, label %land.lhs.true

land.lhs.true:                                    ; preds = %for.body10
  %8 = load i8, ptr %7, align 8
  %tobool14 = trunc i8 %8 to i1
  br i1 %tobool14, label %land.lhs.true16, label %for.inc

land.lhs.true16:                                  ; preds = %land.lhs.true
  %node_id = getelementptr inbounds nuw i8, ptr %7, i64 8
  %9 = load i64, ptr %node_id, align 8
  %cmp20 = icmp eq i64 %9, %indvars.iv
  br i1 %cmp20, label %if.then22, label %for.inc

if.then22:                                        ; preds = %land.lhs.true16
  %10 = load i64, ptr %6, align 8
  tail call void (ptr, ptr, ...) @g_string_append_printf(ptr noundef %call, ptr noundef nonnull @.str.8, i64 noundef %10) #7
  br label %for.inc

for.inc:                                          ; preds = %for.body10, %land.lhs.true, %land.lhs.true16, %if.then22
  %11 = load ptr, ptr %cpu.032, align 8
  %tobool9.not = icmp eq ptr %11, null
  br i1 %tobool9.not, label %for.cond8.for.end_crit_edge, label %for.body10, !llvm.loop !11

for.cond8.for.end_crit_edge:                      ; preds = %for.inc
  tail call void (ptr, ptr, ...) @g_string_append_printf(ptr noundef %call, ptr noundef nonnull @.str.9) #7
  %arrayidx = getelementptr %struct.NumaNodeMem, ptr %call6, i64 %indvars.iv
  %12 = load i64, ptr %arrayidx, align 8
  %shr = lshr i64 %12, 20
  tail call void (ptr, ptr, ...) @g_string_append_printf(ptr noundef %call, ptr noundef nonnull @.str.10, i32 noundef %5, i64 noundef %shr) #7
  %node_plugged_mem = getelementptr inbounds nuw i8, ptr %arrayidx, i64 8
  %13 = load i64, ptr %node_plugged_mem, align 8
  %shr28 = lshr i64 %13, 20
  tail call void (ptr, ptr, ...) @g_string_append_printf(ptr noundef %call, ptr noundef nonnull @.str.11, i32 noundef %5, i64 noundef %shr28) #7
  %indvars.iv.next = add nuw nsw i64 %indvars.iv, 1
  %exitcond.not = icmp eq i64 %indvars.iv.next, %wide.trip.count40
  br i1 %exitcond.not, label %for.end30, label %for.body, !llvm.loop !10

for.end30:                                        ; preds = %for.cond8.for.end_crit_edge, %for.body.us, %if.end
  tail call void @qapi_free_CpuInfoFastList(ptr noundef %call5.fr) #7
  tail call void @g_free(ptr noundef %call6) #7
  br label %done

done:                                             ; preds = %cond.end.thread, %cond.end, %for.end30
  %call31 = tail call ptr @human_readable_text_from_str(ptr noundef %call) #7
  %tobool.not.i.i = icmp eq ptr %call, null
  br i1 %tobool.not.i.i, label %glib_autoptr_cleanup_GString.exit, label %if.then.i.i

if.then.i.i:                                      ; preds = %done
  %call.i.i.i = tail call ptr @g_string_free(ptr noundef nonnull %call, i32 noundef 1) #7
  br label %glib_autoptr_cleanup_GString.exit

glib_autoptr_cleanup_GString.exit:                ; preds = %done, %if.then.i.i
  ret ptr %call31
}